004012e8 <producer>:
  4012e8:	27bdffd8 	addiu	sp,sp,-40
  4012ec:	afbf0024 	sw	ra,36(sp)
  4012f0:	afbe0020 	sw	s8,32(sp)
  4012f4:	03a0f025 	move	s8,sp
  4012f8:	2402000a 	li	v0,10
  4012fc:	afc20018 	sw	v0,24(s8)
  401300:	0c100014 	jal	400050 <procid>
  401304:	00000000 	nop
  401308:	00402825 	move	a1,v0
  40130c:	3c020100 	lui	v0,0x100
  401310:	2444007c 	addiu	a0,v0,124
  401314:	0c1001ea 	jal	4007a8 <tty_printf>
  401318:	00000000 	nop
  40131c:	afc00014 	sw	zero,20(s8)
  401320:	10000022 	b	4013ac <producer+0xc4>
  401324:	00000000 	nop
  401328:	afc00010 	sw	zero,16(s8)
  40132c:	10000004 	b	401340 <producer+0x58>
  401330:	00000000 	nop
  401334:	8fc20010 	lw	v0,16(s8)
  401338:	24420001 	addiu	v0,v0,1
  40133c:	afc20010 	sw	v0,16(s8)
  401340:	8fc30010 	lw	v1,16(s8)
  401344:	8fc20018 	lw	v0,24(s8)
  401348:	0062102a 	slt	v0,v1,v0
  40134c:	1440fff9 	bnez	v0,401334 <producer+0x4c>
  401350:	00000000 	nop
  401354:	10000001 	b	40135c <producer+0x74>
  401358:	00000000 	nop
  40135c:	3c020100 	lui	v0,0x100
  401360:	8c42019c 	lw	v0,412(v0)
  401364:	1440fffd 	bnez	v0,40135c <producer+0x74>
  401368:	00000000 	nop
  40136c:	3c020100 	lui	v0,0x100
  401370:	8fc30014 	lw	v1,20(s8)
  401374:	ac430198 	sw	v1,408(v0)
  401378:	3c020100 	lui	v0,0x100
  40137c:	24030001 	li	v1,1
  401380:	ac43019c 	sw	v1,412(v0)
  401384:	0000000f 	sync
  401388:	8fc60018 	lw	a2,24(s8)
  40138c:	8fc50014 	lw	a1,20(s8)
  401390:	3c020100 	lui	v0,0x100
  401394:	244400b0 	addiu	a0,v0,176
  401398:	0c1001ea 	jal	4007a8 <tty_printf>
  40139c:	00000000 	nop
  4013a0:	8fc20014 	lw	v0,20(s8)
  4013a4:	24420001 	addiu	v0,v0,1
  4013a8:	afc20014 	sw	v0,20(s8)
  4013ac:	8fc20014 	lw	v0,20(s8)
  4013b0:	28420032 	slti	v0,v0,50
  4013b4:	1440ffdc 	bnez	v0,401328 <producer+0x40>
  4013b8:	00000000 	nop
  4013bc:	0c100025 	jal	400094 <proctime>
  4013c0:	00000000 	nop
  4013c4:	00402825 	move	a1,v0
  4013c8:	3c020100 	lui	v0,0x100
  4013cc:	244400e0 	addiu	a0,v0,224
  4013d0:	0c1001ea 	jal	4007a8 <tty_printf>
  4013d4:	00000000 	nop
  4013d8:	0c100472 	jal	4011c8 <exit>
  4013dc:	00000000 	nop
  4013e0:	00000000 	nop
  4013e4:	03c0e825 	move	sp,s8
  4013e8:	8fbf0024 	lw	ra,36(sp)
  4013ec:	8fbe0020 	lw	s8,32(sp)
  4013f0:	27bd0028 	addiu	sp,sp,40
  4013f4:	03e00008 	jr	ra
  4013f8:	00000000 	nop

004013fc <consumer>:
  4013fc:	27bdffd8 	addiu	sp,sp,-40
  401400:	afbf0024 	sw	ra,36(sp)
  401404:	afbe0020 	sw	s8,32(sp)
  401408:	03a0f025 	move	s8,sp
  40140c:	240203e8 	li	v0,1000
  401410:	afc20018 	sw	v0,24(s8)
  401414:	0c100014 	jal	400050 <procid>
  401418:	00000000 	nop
  40141c:	00402825 	move	a1,v0
  401420:	3c020100 	lui	v0,0x100
  401424:	2444010c 	addiu	a0,v0,268
  401428:	0c1001ea 	jal	4007a8 <tty_printf>
  40142c:	00000000 	nop
  401430:	afc00014 	sw	zero,20(s8)
  401434:	10000021 	b	4014bc <consumer+0xc0>
  401438:	00000000 	nop
  40143c:	afc00010 	sw	zero,16(s8)
  401440:	10000004 	b	401454 <consumer+0x58>
  401444:	00000000 	nop
  401448:	8fc20010 	lw	v0,16(s8)
  40144c:	24420001 	addiu	v0,v0,1
  401450:	afc20010 	sw	v0,16(s8)
  401454:	8fc30010 	lw	v1,16(s8)
  401458:	8fc20018 	lw	v0,24(s8)
  40145c:	0062102a 	slt	v0,v1,v0
  401460:	1440fff9 	bnez	v0,401448 <consumer+0x4c>
  401464:	00000000 	nop
  401468:	10000001 	b	401470 <consumer+0x74>
  40146c:	00000000 	nop
  401470:	3c020100 	lui	v0,0x100
  401474:	8c42019c 	lw	v0,412(v0)
  401478:	1040fffd 	beqz	v0,401470 <consumer+0x74>
  40147c:	00000000 	nop
  401480:	3c020100 	lui	v0,0x100
  401484:	8c420198 	lw	v0,408(v0)
  401488:	afc2001c 	sw	v0,28(s8)
  40148c:	3c020100 	lui	v0,0x100
  401490:	ac40019c 	sw	zero,412(v0)
  401494:	0000000f 	sync
  401498:	8fc60018 	lw	a2,24(s8)
  40149c:	8fc5001c 	lw	a1,28(s8)
  4014a0:	3c020100 	lui	v0,0x100
  4014a4:	24440140 	addiu	a0,v0,320
  4014a8:	0c1001ea 	jal	4007a8 <tty_printf>
  4014ac:	00000000 	nop
  4014b0:	8fc20014 	lw	v0,20(s8)
  4014b4:	24420001 	addiu	v0,v0,1
  4014b8:	afc20014 	sw	v0,20(s8)
  4014bc:	8fc20014 	lw	v0,20(s8)
  4014c0:	28420032 	slti	v0,v0,50
  4014c4:	1440ffdd 	bnez	v0,40143c <consumer+0x40>
  4014c8:	00000000 	nop
  4014cc:	0c100025 	jal	400094 <proctime>
  4014d0:	00000000 	nop
  4014d4:	00402825 	move	a1,v0
  4014d8:	3c020100 	lui	v0,0x100
  4014dc:	2444016c 	addiu	a0,v0,364
  4014e0:	0c1001ea 	jal	4007a8 <tty_printf>
  4014e4:	00000000 	nop
  4014e8:	0c100472 	jal	4011c8 <exit>
  4014ec:	00000000 	nop
  4014f0:	00000000 	nop
  4014f4:	03c0e825 	move	sp,s8
  4014f8:	8fbf0024 	lw	ra,36(sp)
  4014fc:	8fbe0020 	lw	s8,32(sp)
  401500:	27bd0028 	addiu	sp,sp,40
  401504:	03e00008 	jr	ra
  401508:	00000000 	nop
